; Function Attrs: inlinehint mustprogress nounwind uwtable
define internal fastcc void @"_ZN9grpc_core14promise_detail11PromiseLikeINS0_6TrySeqINS_5SleepEJZZNS_13ClientChannel14StartIdleTimerEvENK3$_0clEvEUlvE_EEEvED2Ev"(ptr noundef nonnull align 8 dereferenceable(32) %0) unnamed_addr #16 align 2 personality ptr @__gxx_personality_v0 {
  %2 = getelementptr inbounds nuw i8, ptr %0, i64 24
  %3 = load i8, ptr %2, align 8, !tbaa !625
  switch i8 %3, label %10 [
    i8 0, label %4
    i8 1, label %5
  ]

4:                                                ; preds = %1
  tail call void @_ZN9grpc_core5SleepD1Ev(ptr noundef nonnull align 8 dereferenceable(32) %0) #42
  br label %10

5:                                                ; preds = %1
  %.val.i = load ptr, ptr %0, align 8, !tbaa !10
  %.not.i.i.i.i = icmp eq ptr %.val.i, null
  br i1 %.not.i.i.i.i, label %"_ZN9grpc_core14promise_detail6TrySeqINS_5SleepEJZZNS_13ClientChannel14StartIdleTimerEvENK3$_0clEvEUlvE_EED2Ev.exit", label %6

6:                                                ; preds = %5
  %7 = getelementptr inbounds nuw i8, ptr %.val.i, i64 8
  %8 = atomicrmw sub ptr %7, i64 1 acq_rel, align 8
  %9 = icmp eq i64 %8, 1
  br i1 %9, label %"_ZN9grpc_core14promise_detail8SeqStateINS0_12TrySeqTraitsENS_5SleepEJZZNS_13ClientChannel14StartIdleTimerEvENK3$_0clEvEUlvE_EED2Ev.exit.sink.split.i", label %"_ZN9grpc_core14promise_detail6TrySeqINS_5SleepEJZZNS_13ClientChannel14StartIdleTimerEvENK3$_0clEvEUlvE_EED2Ev.exit", !prof !26

10:                                               ; preds = %4, %1
  %11 = getelementptr inbounds nuw i8, ptr %0, i64 16
  %.val1.i = load ptr, ptr %11, align 8, !tbaa !10
  %.not.i.i.i2.i = icmp eq ptr %.val1.i, null
  br i1 %.not.i.i.i2.i, label %"_ZN9grpc_core14promise_detail6TrySeqINS_5SleepEJZZNS_13ClientChannel14StartIdleTimerEvENK3$_0clEvEUlvE_EED2Ev.exit", label %12

12:                                               ; preds = %10
  %13 = getelementptr inbounds nuw i8, ptr %.val1.i, i64 8
  %14 = atomicrmw sub ptr %13, i64 1 acq_rel, align 8
  %15 = icmp eq i64 %14, 1
  br i1 %15, label %"_ZN9grpc_core14promise_detail8SeqStateINS0_12TrySeqTraitsENS_5SleepEJZZNS_13ClientChannel14StartIdleTimerEvENK3$_0clEvEUlvE_EED2Ev.exit.sink.split.i", label %"_ZN9grpc_core14promise_detail6TrySeqINS_5SleepEJZZNS_13ClientChannel14StartIdleTimerEvENK3$_0clEvEUlvE_EED2Ev.exit", !prof !26

"_ZN9grpc_core14promise_detail8SeqStateINS0_12TrySeqTraitsENS_5SleepEJZZNS_13ClientChannel14StartIdleTimerEvENK3$_0clEvEUlvE_EED2Ev.exit.sink.split.i": ; preds = %12, %6
  %.val1.sink4.i = phi ptr [ %.val.i, %6 ], [ %.val1.i, %12 ]
  %16 = load ptr, ptr %.val1.sink4.i, align 8, !tbaa !8
  %17 = getelementptr inbounds nuw i8, ptr %16, i64 8
  %18 = load ptr, ptr %17, align 8
  tail call void %18(ptr noundef nonnull align 8 dereferenceable(16) %.val1.sink4.i) #42
  br label %"_ZN9grpc_core14promise_detail6TrySeqINS_5SleepEJZZNS_13ClientChannel14StartIdleTimerEvENK3$_0clEvEUlvE_EED2Ev.exit"

"_ZN9grpc_core14promise_detail6TrySeqINS_5SleepEJZZNS_13ClientChannel14StartIdleTimerEvENK3$_0clEvEUlvE_EED2Ev.exit": ; preds = %5, %6, %10, %12, %"_ZN9grpc_core14promise_detail8SeqStateINS0_12TrySeqTraitsENS_5SleepEJZZNS_13ClientChannel14StartIdleTimerEvENK3$_0clEvEUlvE_EED2Ev.exit.sink.split.i"
  ret void
}